target datalayout = "e-m:e-p270:32:32-p271:32:32-p272:64:64-i64:64-i128:128-f80:128-n8:16:32:64-S128"
target triple = "x86_64-pc-linux-gnu"

; Function Attrs: nounwind uwtable
define i32 @ASN1_object_size(i32 noundef %0, i32 noundef %1, i32 noundef %2) #0 {
  %4 = alloca i32, align 4
  %5 = alloca i32, align 4
  %6 = alloca i32, align 4
  %7 = alloca i32, align 4
  %8 = alloca i32, align 4
  %9 = alloca i32, align 4
  %10 = alloca i32, align 4
  store i32 %0, ptr %5, align 4, !tbaa !17
  store i32 %1, ptr %6, align 4, !tbaa !17
  store i32 %2, ptr %7, align 4, !tbaa !17
  call void @llvm.lifetime.start.p0(i64 4, ptr %8) #7
  store i32 1, ptr %8, align 4, !tbaa !17
  %11 = load i32, ptr %6, align 4, !tbaa !17
  %12 = icmp slt i32 %11, 0
  br i1 %12, label %13, label %14

13:                                               ; preds = %3
  store i32 -1, ptr %4, align 4
  store i32 1, ptr %9, align 4
  br label %60

14:                                               ; preds = %3
  %15 = load i32, ptr %7, align 4, !tbaa !17
  %16 = icmp sge i32 %15, 31
  br i1 %16, label %17, label %27

17:                                               ; preds = %14
  br label %18

18:                                               ; preds = %21, %17
  %19 = load i32, ptr %7, align 4, !tbaa !17
  %20 = icmp sgt i32 %19, 0
  br i1 %20, label %21, label %26

21:                                               ; preds = %18
  %22 = load i32, ptr %7, align 4, !tbaa !17
  %23 = ashr i32 %22, 7
  store i32 %23, ptr %7, align 4, !tbaa !17
  %24 = load i32, ptr %8, align 4, !tbaa !17
  %25 = add nsw i32 %24, 1
  store i32 %25, ptr %8, align 4, !tbaa !17
  br label %18, !llvm.loop !27

26:                                               ; preds = %18
  br label %27

27:                                               ; preds = %26, %14
  %28 = load i32, ptr %5, align 4, !tbaa !17
  %29 = icmp eq i32 %28, 2
  br i1 %29, label %30, label %33

30:                                               ; preds = %27
  %31 = load i32, ptr %8, align 4, !tbaa !17
  %32 = add nsw i32 %31, 3
  store i32 %32, ptr %8, align 4, !tbaa !17
  br label %50

33:                                               ; preds = %27
  %34 = load i32, ptr %8, align 4, !tbaa !17
  %35 = add nsw i32 %34, 1
  store i32 %35, ptr %8, align 4, !tbaa !17
  %36 = load i32, ptr %6, align 4, !tbaa !17
  %37 = icmp sgt i32 %36, 127
  br i1 %37, label %38, label %49

38:                                               ; preds = %33
  call void @llvm.lifetime.start.p0(i64 4, ptr %10) #7
  %39 = load i32, ptr %6, align 4, !tbaa !17
  store i32 %39, ptr %10, align 4, !tbaa !17
  br label %40

40:                                               ; preds = %43, %38
  %41 = load i32, ptr %10, align 4, !tbaa !17
  %42 = icmp sgt i32 %41, 0
  br i1 %42, label %43, label %48

43:                                               ; preds = %40
  %44 = load i32, ptr %10, align 4, !tbaa !17
  %45 = ashr i32 %44, 8
  store i32 %45, ptr %10, align 4, !tbaa !17
  %46 = load i32, ptr %8, align 4, !tbaa !17
  %47 = add nsw i32 %46, 1
  store i32 %47, ptr %8, align 4, !tbaa !17
  br label %40, !llvm.loop !28

48:                                               ; preds = %40
  call void @llvm.lifetime.end.p0(i64 4, ptr %10) #7
  br label %49

49:                                               ; preds = %48, %33
  br label %50

50:                                               ; preds = %49, %30
  %51 = load i32, ptr %8, align 4, !tbaa !17
  %52 = load i32, ptr %6, align 4, !tbaa !17
  %53 = sub nsw i32 2147483647, %52
  %54 = icmp sge i32 %51, %53
  br i1 %54, label %55, label %56

55:                                               ; preds = %50
  store i32 -1, ptr %4, align 4
  store i32 1, ptr %9, align 4
  br label %60

56:                                               ; preds = %50
  %57 = load i32, ptr %8, align 4, !tbaa !17
  %58 = load i32, ptr %6, align 4, !tbaa !17
  %59 = add nsw i32 %57, %58
  store i32 %59, ptr %4, align 4
  store i32 1, ptr %9, align 4
  br label %60

60:                                               ; preds = %56, %55, %13
  call void @llvm.lifetime.end.p0(i64 4, ptr %8) #7
  %61 = load i32, ptr %4, align 4
  ret i32 %61
}